target datalayout = "e-m:e-p270:32:32-p271:32:32-p272:64:64-i64:64-i128:128-f80:128-n8:16:32:64-S128"
target triple = "x86_64-pc-linux-gnu"

%struct.XLogRecoveryCtlData = type { i8, i8, %struct.Latch, i64, i64, i32, i64, i32, i64, i64, i32, %struct.ConditionVariable, i8 }
%struct.Latch = type { i32, i32, i8, i32 }
%struct.ConditionVariable = type { i8, %struct.proclist_head }
%struct.proclist_head = type { i32, i32 }

@XLogRecoveryCtl = internal global ptr null, align 8
@.str.6 = private unnamed_addr constant [15 x i8] c"xlogrecovery.c\00", align 1
@__func__.SetRecoveryPause = private unnamed_addr constant [17 x i8] c"SetRecoveryPause\00", align 1

; Function Attrs: inlinehint nounwind uwtable
define internal i32 @tas(ptr noundef %0) #7 {
  %2 = alloca ptr, align 8
  %3 = alloca i8, align 1
  store ptr %0, ptr %2, align 8
  call void @llvm.lifetime.start.p0(i64 1, ptr %3) #14
  store i8 1, ptr %3, align 1
  %4 = load i8, ptr %3, align 1
  %5 = load ptr, ptr %2, align 8
  %6 = call i8 asm sideeffect "\09lock\09\09\09\0A\09xchgb\09$0,$1\09\0A", "=q,=*m,0,*m,~{memory},~{cc},~{dirflag},~{fpsr},~{flags}"(ptr elementtype(i8) %5, i8 %4, ptr elementtype(i8) %5) #14, !srcloc !13
  store i8 %6, ptr %3, align 1
  %7 = load i8, ptr %3, align 1
  %8 = zext i8 %7 to i32
  call void @llvm.lifetime.end.p0(i64 1, ptr %3) #14
  ret i32 %8
}

; Function Attrs: nounwind uwtable
define dso_local void @SetRecoveryPause(i1 noundef zeroext %0) #0 {
  %2 = alloca i8, align 1
  %3 = zext i1 %0 to i8
  store i8 %3, ptr %2, align 1
  %4 = load ptr, ptr @XLogRecoveryCtl, align 8
  %5 = getelementptr inbounds nuw %struct.XLogRecoveryCtlData, ptr %4, i32 0, i32 12
  %6 = call i32 @tas(ptr noundef %5)
  %7 = icmp ne i32 %6, 0
  br i1 %7, label %8, label %12

8:                                                ; preds = %1
  %9 = load ptr, ptr @XLogRecoveryCtl, align 8
  %10 = getelementptr inbounds nuw %struct.XLogRecoveryCtlData, ptr %9, i32 0, i32 12
  %11 = call i32 @s_lock(ptr noundef %10, ptr noundef @.str.6, i32 noundef 3095, ptr noundef @__func__.SetRecoveryPause)
  br label %13

12:                                               ; preds = %1
  br label %13

13:                                               ; preds = %12, %8
  %14 = load i8, ptr %2, align 1, !range !4, !noundef !5
  %15 = trunc i8 %14 to i1
  br i1 %15, label %19, label %16

16:                                               ; preds = %13
  %17 = load ptr, ptr @XLogRecoveryCtl, align 8
  %18 = getelementptr inbounds nuw %struct.XLogRecoveryCtlData, ptr %17, i32 0, i32 10
  store i32 0, ptr %18, align 8
  br label %28

19:                                               ; preds = %13
  %20 = load ptr, ptr @XLogRecoveryCtl, align 8
  %21 = getelementptr inbounds nuw %struct.XLogRecoveryCtlData, ptr %20, i32 0, i32 10
  %22 = load i32, ptr %21, align 8
  %23 = icmp eq i32 %22, 0
  br i1 %23, label %24, label %27

24:                                               ; preds = %19
  %25 = load ptr, ptr @XLogRecoveryCtl, align 8
  %26 = getelementptr inbounds nuw %struct.XLogRecoveryCtlData, ptr %25, i32 0, i32 10
  store i32 1, ptr %26, align 8
  br label %27

27:                                               ; preds = %24, %19
  br label %28

28:                                               ; preds = %27, %16
  br label %29

29:                                               ; preds = %28
  call void asm sideeffect "", "~{memory},~{dirflag},~{fpsr},~{flags}"() #14, !srcloc !18
  %30 = load ptr, ptr @XLogRecoveryCtl, align 8
  %31 = getelementptr inbounds nuw %struct.XLogRecoveryCtlData, ptr %30, i32 0, i32 12
  store i8 0, ptr %31, align 8
  br label %32

32:                                               ; preds = %29
  %33 = load i8, ptr %2, align 1, !range !4, !noundef !5
  %34 = trunc i8 %33 to i1
  br i1 %34, label %38, label %35

35:                                               ; preds = %32
  %36 = load ptr, ptr @XLogRecoveryCtl, align 8
  %37 = getelementptr inbounds nuw %struct.XLogRecoveryCtlData, ptr %36, i32 0, i32 11
  call void @ConditionVariableBroadcast(ptr noundef %37)
  br label %38

38:                                               ; preds = %35, %32
  ret void
}