; Function Attrs: nounwind uwtable
define dso_local void @SetRecoveryPause(i1 noundef zeroext %0) local_unnamed_addr #2 {
  %2 = load ptr, ptr @XLogRecoveryCtl, align 8
  %3 = getelementptr inbounds nuw i8, ptr %2, i64 96
  %4 = tail call i8 asm sideeffect "\09lock\09\09\09\0A\09xchgb\09$0,$1\09\0A", "=q,=*m,0,*m,~{memory},~{cc},~{dirflag},~{fpsr},~{flags}"(ptr nonnull elementtype(i8) %3, i8 1, ptr nonnull elementtype(i8) %3) #23, !srcloc !10
  %.not = icmp eq i8 %4, 0
  br i1 %.not, label %9, label %5

5:                                                ; preds = %1
  %6 = load ptr, ptr @XLogRecoveryCtl, align 8
  %7 = getelementptr inbounds nuw i8, ptr %6, i64 96
  %8 = tail call i32 @s_lock(ptr noundef nonnull %7, ptr noundef nonnull @.str.6, i32 noundef 3095, ptr noundef nonnull @__func__.SetRecoveryPause) #23
  br label %9

9:                                                ; preds = %1, %5
  %10 = load ptr, ptr @XLogRecoveryCtl, align 8
  %11 = getelementptr inbounds nuw i8, ptr %10, i64 80
  br i1 %0, label %12, label %18

12:                                               ; preds = %9
  %13 = load i32, ptr %11, align 8
  %14 = icmp eq i32 %13, 0
  br i1 %14, label %15, label %.thread

15:                                               ; preds = %12
  store i32 1, ptr %11, align 8
  br label %.thread

.thread:                                          ; preds = %15, %12
  tail call void asm sideeffect "", "~{memory},~{dirflag},~{fpsr},~{flags}"() #23, !srcloc !25
  %16 = load ptr, ptr @XLogRecoveryCtl, align 8
  %17 = getelementptr inbounds nuw i8, ptr %16, i64 96
  store i8 0, ptr %17, align 8
  br label %22

18:                                               ; preds = %9
  store i32 0, ptr %11, align 8
  tail call void asm sideeffect "", "~{memory},~{dirflag},~{fpsr},~{flags}"() #23, !srcloc !25
  %19 = load ptr, ptr @XLogRecoveryCtl, align 8
  %20 = getelementptr inbounds nuw i8, ptr %19, i64 96
  store i8 0, ptr %20, align 8
  %21 = getelementptr inbounds nuw i8, ptr %19, i64 84
  tail call void @ConditionVariableBroadcast(ptr noundef nonnull %21) #23
  br label %22

22:                                               ; preds = %.thread, %18
  ret void
}